target datalayout = "e-m:e-p270:32:32-p271:32:32-p272:64:64-i64:64-i128:128-f80:128-n8:16:32:64-S128"
target triple = "x86_64-pc-linux-gnu"

%struct.commit_graph = type { ptr, i64, i8, i8, i32, %struct.object_id, ptr, ptr, i32, i32, ptr, ptr, ptr, ptr, ptr, ptr, i64, ptr, i64, ptr, i64, ptr, ptr, i64, ptr, ptr }
%struct.object_id = type { [32 x i8], i32 }
%struct.bloom_filter = type { ptr, i64, i32, ptr }
%struct.bloom_filter_settings = type { i32, i32, i32, i32 }

@.str = private unnamed_addr constant [91 x i8] c"ignoring decreasing changed-path index offsets (%lu > %lu) for positions %lu and %lu of %s\00", align 1
@.str.3 = private unnamed_addr constant [94 x i8] c"ignoring out-of-range offset (%lu) for changed-path filter at pos %lu of %s (chunk size: %lu)\00", align 1

; Function Attrs: nounwind uwtable
define internal i32 @check_bloom_offset(ptr noundef %0, i32 noundef %1, i32 noundef %2) #0 {
  %4 = alloca i32, align 4
  %5 = alloca ptr, align 8
  %6 = alloca i32, align 4
  %7 = alloca i32, align 4
  store ptr %0, ptr %5, align 8, !tbaa !4
  store i32 %1, ptr %6, align 4, !tbaa !11
  store i32 %2, ptr %7, align 4, !tbaa !11
  %8 = load i32, ptr %7, align 4, !tbaa !11
  %9 = zext i32 %8 to i64
  %10 = load ptr, ptr %5, align 8, !tbaa !4
  %11 = getelementptr inbounds nuw %struct.commit_graph, ptr %10, i32 0, i32 23
  %12 = load i64, ptr %11, align 8, !tbaa !39
  %13 = sub i64 %12, 12
  %14 = icmp ule i64 %9, %13
  br i1 %14, label %15, label %16

15:                                               ; preds = %3
  store i32 0, ptr %4, align 4
  br label %27

16:                                               ; preds = %3
  %17 = load i32, ptr %7, align 4, !tbaa !11
  %18 = zext i32 %17 to i64
  %19 = load i32, ptr %6, align 4, !tbaa !11
  %20 = zext i32 %19 to i64
  %21 = load ptr, ptr %5, align 8, !tbaa !4
  %22 = getelementptr inbounds nuw %struct.commit_graph, ptr %21, i32 0, i32 6
  %23 = load ptr, ptr %22, align 8, !tbaa !26
  %24 = load ptr, ptr %5, align 8, !tbaa !4
  %25 = getelementptr inbounds nuw %struct.commit_graph, ptr %24, i32 0, i32 23
  %26 = load i64, ptr %25, align 8, !tbaa !39
  call void (ptr, ...) @warning(ptr noundef @.str.3, i64 noundef %18, i64 noundef %20, ptr noundef %23, i64 noundef %26)
  store i32 -1, ptr %4, align 4
  br label %27

27:                                               ; preds = %16, %15
  %28 = load i32, ptr %4, align 4
  ret i32 %28
}

; Function Attrs: inlinehint nounwind uwtable
define internal i32 @get_be32(ptr noundef %0) #2 {
  %2 = alloca ptr, align 8
  %3 = alloca ptr, align 8
  store ptr %0, ptr %2, align 8, !tbaa !36
  call void @llvm.lifetime.start.p0(i64 8, ptr %3) #8
  %4 = load ptr, ptr %2, align 8, !tbaa !36
  store ptr %4, ptr %3, align 8, !tbaa !37
  %5 = load ptr, ptr %3, align 8, !tbaa !37
  %6 = getelementptr inbounds i8, ptr %5, i64 0
  %7 = load i8, ptr %6, align 1, !tbaa !38
  %8 = zext i8 %7 to i32
  %9 = shl i32 %8, 24
  %10 = load ptr, ptr %3, align 8, !tbaa !37
  %11 = getelementptr inbounds i8, ptr %10, i64 1
  %12 = load i8, ptr %11, align 1, !tbaa !38
  %13 = zext i8 %12 to i32
  %14 = shl i32 %13, 16
  %15 = or i32 %9, %14
  %16 = load ptr, ptr %3, align 8, !tbaa !37
  %17 = getelementptr inbounds i8, ptr %16, i64 2
  %18 = load i8, ptr %17, align 1, !tbaa !38
  %19 = zext i8 %18 to i32
  %20 = shl i32 %19, 8
  %21 = or i32 %15, %20
  %22 = load ptr, ptr %3, align 8, !tbaa !37
  %23 = getelementptr inbounds i8, ptr %22, i64 3
  %24 = load i8, ptr %23, align 1, !tbaa !38
  %25 = zext i8 %24 to i32
  %26 = shl i32 %25, 0
  %27 = or i32 %21, %26
  call void @llvm.lifetime.end.p0(i64 8, ptr %3) #8
  ret i32 %27
}

; Function Attrs: nounwind uwtable
define dso_local i32 @load_bloom_filter_from_graph(ptr noundef %0, ptr noundef %1, i32 noundef %2) #0 {
  %4 = alloca i32, align 4
  %5 = alloca ptr, align 8
  %6 = alloca ptr, align 8
  %7 = alloca i32, align 4
  %8 = alloca i32, align 4
  %9 = alloca i32, align 4
  %10 = alloca i32, align 4
  %11 = alloca i32, align 4
  store ptr %0, ptr %5, align 8, !tbaa !4
  store ptr %1, ptr %6, align 8, !tbaa !9
  store i32 %2, ptr %7, align 4, !tbaa !11
  call void @llvm.lifetime.start.p0(i64 4, ptr %8) #8
  call void @llvm.lifetime.start.p0(i64 4, ptr %9) #8
  call void @llvm.lifetime.start.p0(i64 4, ptr %10) #8
  br label %12

12:                                               ; preds = %18, %3
  %13 = load i32, ptr %7, align 4, !tbaa !11
  %14 = load ptr, ptr %5, align 8, !tbaa !4
  %15 = getelementptr inbounds nuw %struct.commit_graph, ptr %14, i32 0, i32 8
  %16 = load i32, ptr %15, align 8, !tbaa !13
  %17 = icmp ult i32 %13, %16
  br i1 %17, label %18, label %22

18:                                               ; preds = %12
  %19 = load ptr, ptr %5, align 8, !tbaa !4
  %20 = getelementptr inbounds nuw %struct.commit_graph, ptr %19, i32 0, i32 10
  %21 = load ptr, ptr %20, align 8, !tbaa !22
  store ptr %21, ptr %5, align 8, !tbaa !4
  br label %12, !llvm.loop !23

22:                                               ; preds = %12
  %23 = load ptr, ptr %5, align 8, !tbaa !4
  %24 = getelementptr inbounds nuw %struct.commit_graph, ptr %23, i32 0, i32 21
  %25 = load ptr, ptr %24, align 8, !tbaa !25
  %26 = icmp ne ptr %25, null
  br i1 %26, label %28, label %27

27:                                               ; preds = %22
  store i32 0, ptr %4, align 4
  store i32 1, ptr %11, align 4
  br label %112

28:                                               ; preds = %22
  %29 = load i32, ptr %7, align 4, !tbaa !11
  %30 = load ptr, ptr %5, align 8, !tbaa !4
  %31 = getelementptr inbounds nuw %struct.commit_graph, ptr %30, i32 0, i32 8
  %32 = load i32, ptr %31, align 8, !tbaa !13
  %33 = sub i32 %29, %32
  store i32 %33, ptr %8, align 4, !tbaa !11
  %34 = load ptr, ptr %5, align 8, !tbaa !4
  %35 = getelementptr inbounds nuw %struct.commit_graph, ptr %34, i32 0, i32 21
  %36 = load ptr, ptr %35, align 8, !tbaa !25
  %37 = load i32, ptr %8, align 4, !tbaa !11
  %38 = mul i32 4, %37
  %39 = zext i32 %38 to i64
  %40 = getelementptr inbounds nuw i8, ptr %36, i64 %39
  %41 = call i32 @get_be32(ptr noundef %40)
  store i32 %41, ptr %10, align 4, !tbaa !11
  %42 = load i32, ptr %8, align 4, !tbaa !11
  %43 = icmp ugt i32 %42, 0
  br i1 %43, label %44, label %54

44:                                               ; preds = %28
  %45 = load ptr, ptr %5, align 8, !tbaa !4
  %46 = getelementptr inbounds nuw %struct.commit_graph, ptr %45, i32 0, i32 21
  %47 = load ptr, ptr %46, align 8, !tbaa !25
  %48 = load i32, ptr %8, align 4, !tbaa !11
  %49 = sub i32 %48, 1
  %50 = mul i32 4, %49
  %51 = zext i32 %50 to i64
  %52 = getelementptr inbounds nuw i8, ptr %47, i64 %51
  %53 = call i32 @get_be32(ptr noundef %52)
  store i32 %53, ptr %9, align 4, !tbaa !11
  br label %55

54:                                               ; preds = %28
  store i32 0, ptr %9, align 4, !tbaa !11
  br label %55

55:                                               ; preds = %54, %44
  %56 = load ptr, ptr %5, align 8, !tbaa !4
  %57 = load i32, ptr %8, align 4, !tbaa !11
  %58 = load i32, ptr %10, align 4, !tbaa !11
  %59 = call i32 @check_bloom_offset(ptr noundef %56, i32 noundef %57, i32 noundef %58)
  %60 = icmp slt i32 %59, 0
  br i1 %60, label %68, label %61

61:                                               ; preds = %55
  %62 = load ptr, ptr %5, align 8, !tbaa !4
  %63 = load i32, ptr %8, align 4, !tbaa !11
  %64 = sub i32 %63, 1
  %65 = load i32, ptr %9, align 4, !tbaa !11
  %66 = call i32 @check_bloom_offset(ptr noundef %62, i32 noundef %64, i32 noundef %65)
  %67 = icmp slt i32 %66, 0
  br i1 %67, label %68, label %69

68:                                               ; preds = %61, %55
  store i32 0, ptr %4, align 4
  store i32 1, ptr %11, align 4
  br label %112

69:                                               ; preds = %61
  %70 = load i32, ptr %10, align 4, !tbaa !11
  %71 = load i32, ptr %9, align 4, !tbaa !11
  %72 = icmp ult i32 %70, %71
  br i1 %72, label %73, label %86

73:                                               ; preds = %69
  %74 = load i32, ptr %9, align 4, !tbaa !11
  %75 = zext i32 %74 to i64
  %76 = load i32, ptr %10, align 4, !tbaa !11
  %77 = zext i32 %76 to i64
  %78 = load i32, ptr %8, align 4, !tbaa !11
  %79 = sub i32 %78, 1
  %80 = zext i32 %79 to i64
  %81 = load i32, ptr %8, align 4, !tbaa !11
  %82 = zext i32 %81 to i64
  %83 = load ptr, ptr %5, align 8, !tbaa !4
  %84 = getelementptr inbounds nuw %struct.commit_graph, ptr %83, i32 0, i32 6
  %85 = load ptr, ptr %84, align 8, !tbaa !26
  call void (ptr, ...) @warning(ptr noundef @.str, i64 noundef %75, i64 noundef %77, i64 noundef %80, i64 noundef %82, ptr noundef %85)
  store i32 0, ptr %4, align 4
  store i32 1, ptr %11, align 4
  br label %112

86:                                               ; preds = %69
  %87 = load i32, ptr %10, align 4, !tbaa !11
  %88 = load i32, ptr %9, align 4, !tbaa !11
  %89 = sub i32 %87, %88
  %90 = zext i32 %89 to i64
  %91 = load ptr, ptr %6, align 8, !tbaa !9
  %92 = getelementptr inbounds nuw %struct.bloom_filter, ptr %91, i32 0, i32 1
  store i64 %90, ptr %92, align 8, !tbaa !27
  %93 = load ptr, ptr %5, align 8, !tbaa !4
  %94 = getelementptr inbounds nuw %struct.commit_graph, ptr %93, i32 0, i32 22
  %95 = load ptr, ptr %94, align 8, !tbaa !29
  %96 = load i32, ptr %9, align 4, !tbaa !11
  %97 = zext i32 %96 to i64
  %98 = mul i64 1, %97
  %99 = getelementptr inbounds nuw i8, ptr %95, i64 %98
  %100 = getelementptr inbounds nuw i8, ptr %99, i64 12
  %101 = load ptr, ptr %6, align 8, !tbaa !9
  %102 = getelementptr inbounds nuw %struct.bloom_filter, ptr %101, i32 0, i32 0
  store ptr %100, ptr %102, align 8, !tbaa !30
  %103 = load ptr, ptr %5, align 8, !tbaa !4
  %104 = getelementptr inbounds nuw %struct.commit_graph, ptr %103, i32 0, i32 25
  %105 = load ptr, ptr %104, align 8, !tbaa !31
  %106 = getelementptr inbounds nuw %struct.bloom_filter_settings, ptr %105, i32 0, i32 0
  %107 = load i32, ptr %106, align 4, !tbaa !32
  %108 = load ptr, ptr %6, align 8, !tbaa !9
  %109 = getelementptr inbounds nuw %struct.bloom_filter, ptr %108, i32 0, i32 2
  store i32 %107, ptr %109, align 8, !tbaa !34
  %110 = load ptr, ptr %6, align 8, !tbaa !9
  %111 = getelementptr inbounds nuw %struct.bloom_filter, ptr %110, i32 0, i32 3
  store ptr null, ptr %111, align 8, !tbaa !35
  store i32 1, ptr %4, align 4
  store i32 1, ptr %11, align 4
  br label %112

112:                                              ; preds = %86, %73, %68, %27
  call void @llvm.lifetime.end.p0(i64 4, ptr %10) #8
  call void @llvm.lifetime.end.p0(i64 4, ptr %9) #8
  call void @llvm.lifetime.end.p0(i64 4, ptr %8) #8
  %113 = load i32, ptr %4, align 4
  ret i32 %113
}