; Function Attrs: nounwind uwtable
define dso_local range(i32 0, 2) i32 @load_bloom_filter_from_graph(ptr noundef readonly captures(none) %0, ptr noundef writeonly captures(none) %1, i32 noundef %2) local_unnamed_addr #0 {
  %4 = getelementptr inbounds nuw i8, ptr %0, i64 80
  %5 = load i32, ptr %4, align 8, !tbaa !4
  %6 = icmp ult i32 %2, %5
  br i1 %6, label %.lr.ph, label %._crit_edge

.lr.ph:                                           ; preds = %3, %.lr.ph
  %.03446 = phi ptr [ %8, %.lr.ph ], [ %0, %3 ]
  %7 = getelementptr inbounds nuw i8, ptr %.03446, i64 88
  %8 = load ptr, ptr %7, align 8, !tbaa !18
  %9 = getelementptr inbounds nuw i8, ptr %8, i64 80
  %10 = load i32, ptr %9, align 8, !tbaa !4
  %11 = icmp ult i32 %2, %10
  br i1 %11, label %.lr.ph, label %._crit_edge, !llvm.loop !19

._crit_edge:                                      ; preds = %.lr.ph, %3
  %.034.lcssa = phi ptr [ %0, %3 ], [ %8, %.lr.ph ]
  %.lcssa = phi i32 [ %5, %3 ], [ %10, %.lr.ph ]
  %12 = getelementptr inbounds nuw i8, ptr %.034.lcssa, i64 176
  %13 = load ptr, ptr %12, align 8, !tbaa !21
  %.not = icmp eq ptr %13, null
  br i1 %.not, label %89, label %14

14:                                               ; preds = %._crit_edge
  %15 = sub i32 %2, %.lcssa
  %16 = shl i32 %15, 2
  %17 = zext i32 %16 to i64
  %18 = getelementptr inbounds nuw i8, ptr %13, i64 %17
  %19 = load i8, ptr %18, align 1, !tbaa !22
  %20 = zext i8 %19 to i32
  %21 = shl nuw i32 %20, 24
  %22 = getelementptr inbounds nuw i8, ptr %18, i64 1
  %23 = load i8, ptr %22, align 1, !tbaa !22
  %24 = zext i8 %23 to i32
  %25 = shl nuw nsw i32 %24, 16
  %26 = or disjoint i32 %25, %21
  %27 = getelementptr inbounds nuw i8, ptr %18, i64 2
  %28 = load i8, ptr %27, align 1, !tbaa !22
  %29 = zext i8 %28 to i32
  %30 = shl nuw nsw i32 %29, 8
  %31 = or disjoint i32 %26, %30
  %32 = getelementptr inbounds nuw i8, ptr %18, i64 3
  %33 = load i8, ptr %32, align 1, !tbaa !22
  %34 = zext i8 %33 to i32
  %35 = or disjoint i32 %31, %34
  %.not40 = icmp eq i32 %2, %.lcssa
  br i1 %.not40, label %57, label %36

36:                                               ; preds = %14
  %37 = add i32 %16, -4
  %38 = zext i32 %37 to i64
  %39 = getelementptr inbounds nuw i8, ptr %13, i64 %38
  %40 = load i8, ptr %39, align 1, !tbaa !22
  %41 = zext i8 %40 to i32
  %42 = shl nuw i32 %41, 24
  %43 = getelementptr inbounds nuw i8, ptr %39, i64 1
  %44 = load i8, ptr %43, align 1, !tbaa !22
  %45 = zext i8 %44 to i32
  %46 = shl nuw nsw i32 %45, 16
  %47 = or disjoint i32 %46, %42
  %48 = getelementptr inbounds nuw i8, ptr %39, i64 2
  %49 = load i8, ptr %48, align 1, !tbaa !22
  %50 = zext i8 %49 to i32
  %51 = shl nuw nsw i32 %50, 8
  %52 = or disjoint i32 %47, %51
  %53 = getelementptr inbounds nuw i8, ptr %39, i64 3
  %54 = load i8, ptr %53, align 1, !tbaa !22
  %55 = zext i8 %54 to i32
  %56 = or disjoint i32 %52, %55
  br label %57

57:                                               ; preds = %14, %36
  %.033 = phi i32 [ %56, %36 ], [ 0, %14 ]
  %58 = zext i32 %35 to i64
  %59 = getelementptr inbounds nuw i8, ptr %.034.lcssa, i64 192
  %60 = load i64, ptr %59, align 8, !tbaa !23
  %61 = add i64 %60, -12
  %.not.i = icmp ult i64 %61, %58
  br i1 %.not.i, label %check_bloom_offset.exit.thread, label %check_bloom_offset.exit

check_bloom_offset.exit.thread:                   ; preds = %57
  %62 = zext i32 %15 to i64
  %63 = getelementptr inbounds nuw i8, ptr %.034.lcssa, i64 64
  %64 = load ptr, ptr %63, align 8, !tbaa !24
  tail call void (ptr, ...) @warning(ptr noundef nonnull @.str.3, i64 noundef %58, i64 noundef %62, ptr noundef %64, i64 noundef %60) #14
  br label %89

check_bloom_offset.exit:                          ; preds = %57
  %65 = add i32 %15, -1
  %66 = zext i32 %.033 to i64
  %.not.i41 = icmp ult i64 %61, %66
  br i1 %.not.i41, label %check_bloom_offset.exit43.thread, label %check_bloom_offset.exit43

check_bloom_offset.exit43.thread:                 ; preds = %check_bloom_offset.exit
  %67 = zext i32 %65 to i64
  %68 = getelementptr inbounds nuw i8, ptr %.034.lcssa, i64 64
  %69 = load ptr, ptr %68, align 8, !tbaa !24
  tail call void (ptr, ...) @warning(ptr noundef nonnull @.str.3, i64 noundef %66, i64 noundef %67, ptr noundef %69, i64 noundef %60) #14
  br label %89

check_bloom_offset.exit43:                        ; preds = %check_bloom_offset.exit
  %70 = icmp ult i32 %35, %.033
  br i1 %70, label %71, label %76

71:                                               ; preds = %check_bloom_offset.exit43
  %72 = zext i32 %65 to i64
  %73 = zext i32 %15 to i64
  %74 = getelementptr inbounds nuw i8, ptr %.034.lcssa, i64 64
  %75 = load ptr, ptr %74, align 8, !tbaa !24
  tail call void (ptr, ...) @warning(ptr noundef nonnull @.str, i64 noundef %66, i64 noundef %58, i64 noundef %72, i64 noundef %73, ptr noundef %75) #14
  br label %89

76:                                               ; preds = %check_bloom_offset.exit43
  %77 = sub nuw i32 %35, %.033
  %78 = zext i32 %77 to i64
  %79 = getelementptr inbounds nuw i8, ptr %1, i64 8
  store i64 %78, ptr %79, align 8, !tbaa !25
  %80 = getelementptr inbounds nuw i8, ptr %.034.lcssa, i64 184
  %81 = load ptr, ptr %80, align 8, !tbaa !27
  %82 = getelementptr inbounds nuw i8, ptr %81, i64 %66
  %83 = getelementptr inbounds nuw i8, ptr %82, i64 12
  store ptr %83, ptr %1, align 8, !tbaa !28
  %84 = getelementptr inbounds nuw i8, ptr %.034.lcssa, i64 208
  %85 = load ptr, ptr %84, align 8, !tbaa !29
  %86 = load i32, ptr %85, align 4, !tbaa !30
  %87 = getelementptr inbounds nuw i8, ptr %1, i64 16
  store i32 %86, ptr %87, align 8, !tbaa !32
  %88 = getelementptr inbounds nuw i8, ptr %1, i64 24
  store ptr null, ptr %88, align 8, !tbaa !33
  br label %89

89:                                               ; preds = %check_bloom_offset.exit43.thread, %check_bloom_offset.exit.thread, %._crit_edge, %76, %71
  %.0 = phi i32 [ 0, %71 ], [ 1, %76 ], [ 0, %._crit_edge ], [ 0, %check_bloom_offset.exit.thread ], [ 0, %check_bloom_offset.exit43.thread ]
  ret i32 %.0
}